target datalayout = "e-m:e-p270:32:32-p271:32:32-p272:64:64-i64:64-i128:128-f80:128-n8:16:32:64-S128"
target triple = "x86_64-pc-linux-gnu"

%"struct.faiss::InvertedListScanner" = type { ptr, i64, i8, i8, ptr, i64 }

; Function Attrs: inlinehint mustprogress nounwind uwtable
define linkonce_odr noundef i64 @_ZN5faiss8lo_buildEmm(i64 noundef %0, i64 noundef %1) #5 comdat {
  %3 = alloca i64, align 8
  %4 = alloca i64, align 8
  store i64 %0, ptr %3, align 8, !tbaa !9
  store i64 %1, ptr %4, align 8, !tbaa !9
  %5 = load i64, ptr %3, align 8, !tbaa !9
  %6 = shl i64 %5, 32
  %7 = load i64, ptr %4, align 8, !tbaa !9
  %8 = or i64 %6, %7
  ret i64 %8
}

; Function Attrs: mustprogress uwtable
define void @_ZNK5faiss19InvertedListScanner16scan_codes_rangeEmPKhPKlfRNS_16RangeQueryResultE(ptr noundef nonnull align 8 dereferenceable(40) %0, i64 noundef %1, ptr noundef %2, ptr noundef %3, float noundef %4, ptr noundef nonnull align 8 dereferenceable(24) %5) unnamed_addr #0 align 2 {
  %7 = alloca ptr, align 8
  %8 = alloca i64, align 8
  %9 = alloca ptr, align 8
  %10 = alloca ptr, align 8
  %11 = alloca float, align 4
  %12 = alloca ptr, align 8
  %13 = alloca i64, align 8
  %14 = alloca float, align 4
  %15 = alloca i8, align 1
  %16 = alloca i64, align 8
  store ptr %0, ptr %7, align 8, !tbaa !4
  store i64 %1, ptr %8, align 8, !tbaa !9
  store ptr %2, ptr %9, align 8, !tbaa !11
  store ptr %3, ptr %10, align 8, !tbaa !13
  store float %4, ptr %11, align 4, !tbaa !25
  store ptr %5, ptr %12, align 8, !tbaa !40
  %17 = load ptr, ptr %7, align 8
  call void @llvm.lifetime.start.p0(i64 8, ptr %13) #20
  store i64 0, ptr %13, align 8, !tbaa !9
  br label %18

18:                                               ; preds = %69, %6
  %19 = load i64, ptr %13, align 8, !tbaa !9
  %20 = load i64, ptr %8, align 8, !tbaa !9
  %21 = icmp ult i64 %19, %20
  br i1 %21, label %23, label %22

22:                                               ; preds = %18
  call void @llvm.lifetime.end.p0(i64 8, ptr %13) #20
  br label %72

23:                                               ; preds = %18
  call void @llvm.lifetime.start.p0(i64 4, ptr %14) #20
  %24 = load ptr, ptr %9, align 8, !tbaa !11
  %25 = load ptr, ptr %17, align 8, !tbaa !23
  %26 = getelementptr inbounds ptr, ptr %25, i64 2
  %27 = load ptr, ptr %26, align 8
  %28 = call noundef float %27(ptr noundef nonnull align 8 dereferenceable(40) %17, ptr noundef %24)
  store float %28, ptr %14, align 4, !tbaa !25
  call void @llvm.lifetime.start.p0(i64 1, ptr %15) #20
  %29 = getelementptr inbounds nuw %"struct.faiss::InvertedListScanner", ptr %17, i32 0, i32 2
  %30 = load i8, ptr %29, align 8, !tbaa !17, !range !21, !noundef !22
  %31 = trunc i8 %30 to i1
  br i1 %31, label %36, label %32

32:                                               ; preds = %23
  %33 = load float, ptr %14, align 4, !tbaa !25
  %34 = load float, ptr %11, align 4, !tbaa !25
  %35 = fcmp olt float %33, %34
  br label %40

36:                                               ; preds = %23
  %37 = load float, ptr %14, align 4, !tbaa !25
  %38 = load float, ptr %11, align 4, !tbaa !25
  %39 = fcmp ogt float %37, %38
  br label %40

40:                                               ; preds = %36, %32
  %41 = phi i1 [ %35, %32 ], [ %39, %36 ]
  %42 = zext i1 %41 to i8
  store i8 %42, ptr %15, align 1, !tbaa !42
  %43 = load i8, ptr %15, align 1, !tbaa !42, !range !21, !noundef !22
  %44 = trunc i8 %43 to i1
  br i1 %44, label %45, label %64

45:                                               ; preds = %40
  call void @llvm.lifetime.start.p0(i64 8, ptr %16) #20
  %46 = getelementptr inbounds nuw %"struct.faiss::InvertedListScanner", ptr %17, i32 0, i32 3
  %47 = load i8, ptr %46, align 1, !tbaa !27, !range !21, !noundef !22
  %48 = trunc i8 %47 to i1
  br i1 %48, label %49, label %54

49:                                               ; preds = %45
  %50 = getelementptr inbounds nuw %"struct.faiss::InvertedListScanner", ptr %17, i32 0, i32 1
  %51 = load i64, ptr %50, align 8, !tbaa !28
  %52 = load i64, ptr %13, align 8, !tbaa !9
  %53 = call noundef i64 @_ZN5faiss8lo_buildEmm(i64 noundef %51, i64 noundef %52)
  br label %59

54:                                               ; preds = %45
  %55 = load ptr, ptr %10, align 8, !tbaa !13
  %56 = load i64, ptr %13, align 8, !tbaa !9
  %57 = getelementptr inbounds nuw i64, ptr %55, i64 %56
  %58 = load i64, ptr %57, align 8, !tbaa !9
  br label %59

59:                                               ; preds = %54, %49
  %60 = phi i64 [ %53, %49 ], [ %58, %54 ]
  store i64 %60, ptr %16, align 8, !tbaa !9
  %61 = load ptr, ptr %12, align 8, !tbaa !40
  %62 = load float, ptr %14, align 4, !tbaa !25
  %63 = load i64, ptr %16, align 8, !tbaa !9
  call void @_ZN5faiss16RangeQueryResult3addEfl(ptr noundef nonnull align 8 dereferenceable(24) %61, float noundef %62, i64 noundef %63)
  call void @llvm.lifetime.end.p0(i64 8, ptr %16) #20
  br label %64

64:                                               ; preds = %59, %40
  %65 = getelementptr inbounds nuw %"struct.faiss::InvertedListScanner", ptr %17, i32 0, i32 5
  %66 = load i64, ptr %65, align 8, !tbaa !29
  %67 = load ptr, ptr %9, align 8, !tbaa !11
  %68 = getelementptr inbounds nuw i8, ptr %67, i64 %66
  store ptr %68, ptr %9, align 8, !tbaa !11
  call void @llvm.lifetime.end.p0(i64 1, ptr %15) #20
  call void @llvm.lifetime.end.p0(i64 4, ptr %14) #20
  br label %69

69:                                               ; preds = %64
  %70 = load i64, ptr %13, align 8, !tbaa !9
  %71 = add i64 %70, 1
  store i64 %71, ptr %13, align 8, !tbaa !9
  br label %18, !llvm.loop !43

72:                                               ; preds = %22
  ret void
}