; Function Attrs: mustprogress uwtable
define void @_ZNK5faiss19InvertedListScanner16scan_codes_rangeEmPKhPKlfRNS_16RangeQueryResultE(ptr noundef nonnull align 8 dereferenceable(40) %0, i64 noundef %1, ptr noundef %2, ptr noundef readonly captures(none) %3, float noundef %4, ptr noundef nonnull align 8 dereferenceable(24) %5) unnamed_addr #0 align 2 {
  %.not = icmp eq i64 %1, 0
  br i1 %.not, label %._crit_edge, label %.lr.ph

.lr.ph:                                           ; preds = %6
  %7 = getelementptr inbounds nuw i8, ptr %0, i64 16
  %8 = getelementptr inbounds nuw i8, ptr %0, i64 17
  %9 = getelementptr inbounds nuw i8, ptr %0, i64 8
  %10 = getelementptr inbounds nuw i8, ptr %0, i64 32
  br label %11

._crit_edge:                                      ; preds = %33, %6
  ret void

11:                                               ; preds = %.lr.ph, %33
  %.019 = phi ptr [ %2, %.lr.ph ], [ %35, %33 ]
  %.01617 = phi i64 [ 0, %.lr.ph ], [ %36, %33 ]
  %12 = load ptr, ptr %0, align 8, !tbaa !14
  %13 = getelementptr inbounds nuw i8, ptr %12, i64 16
  %14 = load ptr, ptr %13, align 8
  %15 = tail call noundef float %14(ptr noundef nonnull align 8 dereferenceable(40) %0, ptr noundef %.019)
  %16 = load i8, ptr %7, align 8, !tbaa !4, !range !12, !noundef !13
  %17 = trunc nuw i8 %16 to i1
  %18 = fcmp olt float %15, %4
  %19 = fcmp ogt float %15, %4
  %20 = select i1 %17, i1 %19, i1 %18
  br i1 %20, label %21, label %33

21:                                               ; preds = %11
  %22 = load i8, ptr %8, align 1, !tbaa !18, !range !12, !noundef !13
  %23 = trunc nuw i8 %22 to i1
  br i1 %23, label %24, label %28

24:                                               ; preds = %21
  %25 = load i64, ptr %9, align 8, !tbaa !20
  %26 = shl i64 %25, 32
  %27 = or i64 %26, %.01617
  br label %31

28:                                               ; preds = %21
  %29 = getelementptr inbounds nuw i64, ptr %3, i64 %.01617
  %30 = load i64, ptr %29, align 8, !tbaa !19
  br label %31

31:                                               ; preds = %28, %24
  %32 = phi i64 [ %27, %24 ], [ %30, %28 ]
  tail call void @_ZN5faiss16RangeQueryResult3addEfl(ptr noundef nonnull align 8 dereferenceable(24) %5, float noundef %15, i64 noundef %32)
  br label %33

33:                                               ; preds = %31, %11
  %34 = load i64, ptr %10, align 8, !tbaa !21
  %35 = getelementptr inbounds nuw i8, ptr %.019, i64 %34
  %36 = add nuw i64 %.01617, 1
  %exitcond.not = icmp eq i64 %36, %1
  br i1 %exitcond.not, label %._crit_edge, label %11, !llvm.loop !29
}